#include <math.h>
#include <stdio.h>
#include <stdlib.h>
#include <string.h>
#include <iostream>
using namespace std;

/**
* ??????
* ???1000012847
* ?????2?N??
*/

int g_pos = 38;    //??????????num[]???????0???

//?????2????????????????
void Pow(int [] , int);
int main()
{
	int n;
	cin >> n;                 //??N????2?n??
	
	int num[40] = {0};        //?????40?????????0
	num[38] = 1;              //?39????1

	Pow(num , n);             //???????????
	
	for(int j = g_pos; j < 39; j++)
		cout << num[j];         //?????????????????

	cout << endl;             //??????

	return 0;
}

void Pow(int num[] , int n)
{
	int i;

	if(n == 0)                 //n?0?????
		return;

	for(i = 39; i >= g_pos; i--)    //?????????????2
	{
		num[i - 1] = num[i - 1] * 2 + num[i] / 10;  //?????2????????
		num[i] %= 10;                             //????10??
	}

	g_pos = 0;
	while(num[g_pos] == 0)
		g_pos++;                       //???2????????????????

	Pow(num , n - 1);                //??????????1
}
